target datalayout = "e-m:e-p270:32:32-p271:32:32-p272:64:64-i64:64-i128:128-f80:128-n8:16:32:64-S128"
target triple = "x86_64-pc-linux-gnu"

%struct.stbtt_fontinfo = type { ptr, ptr, i32, i32, i32, i32, i32, i32, i32, i32, i32, i32 }

; Function Attrs: mustprogress nounwind uwtable
define internal noundef signext i16 @_ZL7ttSHORTPKh(ptr noundef %0) #1 {
  %2 = alloca ptr, align 8
  store ptr %0, ptr %2, align 8
  %3 = load ptr, ptr %2, align 8
  %4 = getelementptr inbounds i8, ptr %3, i64 0
  %5 = load i8, ptr %4, align 1
  %6 = zext i8 %5 to i32
  %7 = mul nsw i32 %6, 256
  %8 = load ptr, ptr %2, align 8
  %9 = getelementptr inbounds i8, ptr %8, i64 1
  %10 = load i8, ptr %9, align 1
  %11 = zext i8 %10 to i32
  %12 = add nsw i32 %7, %11
  %13 = trunc i32 %12 to i16
  ret i16 %13
}

; Function Attrs: mustprogress uwtable
define dso_local void @stbtt_GetFontBoundingBox(ptr noundef %0, ptr noundef %1, ptr noundef %2, ptr noundef %3, ptr noundef %4) #0 {
  %6 = alloca ptr, align 8
  %7 = alloca ptr, align 8
  %8 = alloca ptr, align 8
  %9 = alloca ptr, align 8
  %10 = alloca ptr, align 8
  store ptr %0, ptr %6, align 8
  store ptr %1, ptr %7, align 8
  store ptr %2, ptr %8, align 8
  store ptr %3, ptr %9, align 8
  store ptr %4, ptr %10, align 8
  %11 = load ptr, ptr %6, align 8
  %12 = getelementptr inbounds %struct.stbtt_fontinfo, ptr %11, i32 0, i32 1
  %13 = load ptr, ptr %12, align 8
  %14 = load ptr, ptr %6, align 8
  %15 = getelementptr inbounds %struct.stbtt_fontinfo, ptr %14, i32 0, i32 5
  %16 = load i32, ptr %15, align 4
  %17 = sext i32 %16 to i64
  %18 = getelementptr inbounds i8, ptr %13, i64 %17
  %19 = getelementptr inbounds i8, ptr %18, i64 36
  %20 = call noundef signext i16 @_ZL7ttSHORTPKh(ptr noundef %19)
  %21 = sext i16 %20 to i32
  %22 = load ptr, ptr %7, align 8
  store i32 %21, ptr %22, align 4
  %23 = load ptr, ptr %6, align 8
  %24 = getelementptr inbounds %struct.stbtt_fontinfo, ptr %23, i32 0, i32 1
  %25 = load ptr, ptr %24, align 8
  %26 = load ptr, ptr %6, align 8
  %27 = getelementptr inbounds %struct.stbtt_fontinfo, ptr %26, i32 0, i32 5
  %28 = load i32, ptr %27, align 4
  %29 = sext i32 %28 to i64
  %30 = getelementptr inbounds i8, ptr %25, i64 %29
  %31 = getelementptr inbounds i8, ptr %30, i64 38
  %32 = call noundef signext i16 @_ZL7ttSHORTPKh(ptr noundef %31)
  %33 = sext i16 %32 to i32
  %34 = load ptr, ptr %8, align 8
  store i32 %33, ptr %34, align 4
  %35 = load ptr, ptr %6, align 8
  %36 = getelementptr inbounds %struct.stbtt_fontinfo, ptr %35, i32 0, i32 1
  %37 = load ptr, ptr %36, align 8
  %38 = load ptr, ptr %6, align 8
  %39 = getelementptr inbounds %struct.stbtt_fontinfo, ptr %38, i32 0, i32 5
  %40 = load i32, ptr %39, align 4
  %41 = sext i32 %40 to i64
  %42 = getelementptr inbounds i8, ptr %37, i64 %41
  %43 = getelementptr inbounds i8, ptr %42, i64 40
  %44 = call noundef signext i16 @_ZL7ttSHORTPKh(ptr noundef %43)
  %45 = sext i16 %44 to i32
  %46 = load ptr, ptr %9, align 8
  store i32 %45, ptr %46, align 4
  %47 = load ptr, ptr %6, align 8
  %48 = getelementptr inbounds %struct.stbtt_fontinfo, ptr %47, i32 0, i32 1
  %49 = load ptr, ptr %48, align 8
  %50 = load ptr, ptr %6, align 8
  %51 = getelementptr inbounds %struct.stbtt_fontinfo, ptr %50, i32 0, i32 5
  %52 = load i32, ptr %51, align 4
  %53 = sext i32 %52 to i64
  %54 = getelementptr inbounds i8, ptr %49, i64 %53
  %55 = getelementptr inbounds i8, ptr %54, i64 42
  %56 = call noundef signext i16 @_ZL7ttSHORTPKh(ptr noundef %55)
  %57 = sext i16 %56 to i32
  %58 = load ptr, ptr %10, align 8
  store i32 %57, ptr %58, align 4
  ret void
}