; Function Attrs: mustprogress nofree norecurse nosync nounwind willreturn memory(read, argmem: readwrite, inaccessiblemem: none) uwtable
define dso_local void @stbtt_GetFontBoundingBox(ptr noundef readonly captures(none) %0, ptr noundef writeonly captures(none) initializes((0, 4)) %1, ptr noundef writeonly captures(none) initializes((0, 4)) %2, ptr noundef writeonly captures(none) initializes((0, 4)) %3, ptr noundef writeonly captures(none) initializes((0, 4)) %4) local_unnamed_addr #4 {
  %6 = getelementptr inbounds nuw i8, ptr %0, i64 8
  %7 = load ptr, ptr %6, align 8
  %8 = getelementptr inbounds nuw i8, ptr %0, i64 28
  %9 = load i32, ptr %8, align 4
  %10 = sext i32 %9 to i64
  %11 = getelementptr inbounds i8, ptr %7, i64 %10
  %12 = getelementptr inbounds nuw i8, ptr %11, i64 36
  %.val17 = load i8, ptr %12, align 1
  %13 = getelementptr i8, ptr %11, i64 37
  %.val18 = load i8, ptr %13, align 1
  %14 = zext i8 %.val17 to i16
  %15 = shl nuw i16 %14, 8
  %16 = zext i8 %.val18 to i16
  %17 = or disjoint i16 %15, %16
  %18 = sext i16 %17 to i32
  store i32 %18, ptr %1, align 4
  %19 = load ptr, ptr %6, align 8
  %20 = load i32, ptr %8, align 4
  %21 = sext i32 %20 to i64
  %22 = getelementptr inbounds i8, ptr %19, i64 %21
  %23 = getelementptr inbounds nuw i8, ptr %22, i64 38
  %.val15 = load i8, ptr %23, align 1
  %24 = getelementptr i8, ptr %22, i64 39
  %.val16 = load i8, ptr %24, align 1
  %25 = zext i8 %.val15 to i16
  %26 = shl nuw i16 %25, 8
  %27 = zext i8 %.val16 to i16
  %28 = or disjoint i16 %26, %27
  %29 = sext i16 %28 to i32
  store i32 %29, ptr %2, align 4
  %30 = load ptr, ptr %6, align 8
  %31 = load i32, ptr %8, align 4
  %32 = sext i32 %31 to i64
  %33 = getelementptr inbounds i8, ptr %30, i64 %32
  %34 = getelementptr inbounds nuw i8, ptr %33, i64 40
  %.val13 = load i8, ptr %34, align 1
  %35 = getelementptr i8, ptr %33, i64 41
  %.val14 = load i8, ptr %35, align 1
  %36 = zext i8 %.val13 to i16
  %37 = shl nuw i16 %36, 8
  %38 = zext i8 %.val14 to i16
  %39 = or disjoint i16 %37, %38
  %40 = sext i16 %39 to i32
  store i32 %40, ptr %3, align 4
  %41 = load ptr, ptr %6, align 8
  %42 = load i32, ptr %8, align 4
  %43 = sext i32 %42 to i64
  %44 = getelementptr inbounds i8, ptr %41, i64 %43
  %45 = getelementptr inbounds nuw i8, ptr %44, i64 42
  %.val = load i8, ptr %45, align 1
  %46 = getelementptr i8, ptr %44, i64 43
  %.val12 = load i8, ptr %46, align 1
  %47 = zext i8 %.val to i16
  %48 = shl nuw i16 %47, 8
  %49 = zext i8 %.val12 to i16
  %50 = or disjoint i16 %48, %49
  %51 = sext i16 %50 to i32
  store i32 %51, ptr %4, align 4
  ret void
}